target datalayout = "e-m:e-p270:32:32-p271:32:32-p272:64:64-i64:64-i128:128-f80:128-n8:16:32:64-S128"
target triple = "x86_64-unknown-linux-gnu"

%"class.icu_75::TimeZoneRule" = type { %"class.icu_75::UObject", %"class.icu_75::UnicodeString", i32, i32 }
%"class.icu_75::UObject" = type { ptr }
%"class.icu_75::UnicodeString" = type { %"class.icu_75::Replaceable", %"union.icu_75::UnicodeString::StackBufferOrFields" }
%"class.icu_75::Replaceable" = type { %"class.icu_75::UObject" }
%"union.icu_75::UnicodeString::StackBufferOrFields" = type { %struct.anon.0, [32 x i8] }
%struct.anon.0 = type { i16, i32, i32, ptr }
%"class.icu_75::TimeArrayTimeZoneRule" = type { %"class.icu_75::TimeZoneRule", i32, i32, ptr, [32 x double] }

; Function Attrs: mustprogress nounwind uwtable
define noundef double @_ZNK6icu_7521TimeArrayTimeZoneRule6getUTCEdii(ptr noundef nonnull align 8 dereferenceable(352) %this, double noundef %time, i32 noundef %raw, i32 noundef %dst) #2 align 2 {
entry:
  %this.addr = alloca ptr, align 8
  %time.addr = alloca double, align 8
  %raw.addr = alloca i32, align 4
  %dst.addr = alloca i32, align 4
  store ptr %this, ptr %this.addr, align 8
  store double %time, ptr %time.addr, align 8
  store i32 %raw, ptr %raw.addr, align 4
  store i32 %dst, ptr %dst.addr, align 4
  %this1 = load ptr, ptr %this.addr, align 8
  %fTimeRuleType = getelementptr inbounds %"class.icu_75::TimeArrayTimeZoneRule", ptr %this1, i32 0, i32 1
  %0 = load i32, ptr %fTimeRuleType, align 8
  %cmp = icmp ne i32 %0, 2
  br i1 %cmp, label %if.then, label %if.end

if.then:                                          ; preds = %entry
  %1 = load i32, ptr %raw.addr, align 4
  %conv = sitofp i32 %1 to double
  %2 = load double, ptr %time.addr, align 8
  %sub = fsub double %2, %conv
  store double %sub, ptr %time.addr, align 8
  br label %if.end

if.end:                                           ; preds = %if.then, %entry
  %fTimeRuleType2 = getelementptr inbounds %"class.icu_75::TimeArrayTimeZoneRule", ptr %this1, i32 0, i32 1
  %3 = load i32, ptr %fTimeRuleType2, align 8
  %cmp3 = icmp eq i32 %3, 0
  br i1 %cmp3, label %if.then4, label %if.end7

if.then4:                                         ; preds = %if.end
  %4 = load i32, ptr %dst.addr, align 4
  %conv5 = sitofp i32 %4 to double
  %5 = load double, ptr %time.addr, align 8
  %sub6 = fsub double %5, %conv5
  store double %sub6, ptr %time.addr, align 8
  br label %if.end7

if.end7:                                          ; preds = %if.then4, %if.end
  %6 = load double, ptr %time.addr, align 8
  ret double %6
}

; Function Attrs: mustprogress uwtable
define noundef signext i8 @_ZNK6icu_7521TimeArrayTimeZoneRule13getFinalStartEiiRd(ptr noundef nonnull align 8 dereferenceable(352) %this, i32 noundef %prevRawOffset, i32 noundef %prevDSTSavings, ptr noundef nonnull align 8 dereferenceable(8) %result) unnamed_addr #0 align 2 {
entry:
  %retval = alloca i8, align 1
  %this.addr = alloca ptr, align 8
  %prevRawOffset.addr = alloca i32, align 4
  %prevDSTSavings.addr = alloca i32, align 4
  %result.addr = alloca ptr, align 8
  store ptr %this, ptr %this.addr, align 8
  store i32 %prevRawOffset, ptr %prevRawOffset.addr, align 4
  store i32 %prevDSTSavings, ptr %prevDSTSavings.addr, align 4
  store ptr %result, ptr %result.addr, align 8
  %this1 = load ptr, ptr %this.addr, align 8
  %fNumStartTimes = getelementptr inbounds %"class.icu_75::TimeArrayTimeZoneRule", ptr %this1, i32 0, i32 2
  %0 = load i32, ptr %fNumStartTimes, align 4
  %cmp = icmp sle i32 %0, 0
  br i1 %cmp, label %if.then, label %lor.lhs.false

lor.lhs.false:                                    ; preds = %entry
  %fStartTimes = getelementptr inbounds %"class.icu_75::TimeArrayTimeZoneRule", ptr %this1, i32 0, i32 3
  %1 = load ptr, ptr %fStartTimes, align 8
  %cmp2 = icmp eq ptr %1, null
  br i1 %cmp2, label %if.then, label %if.end

if.then:                                          ; preds = %lor.lhs.false, %entry
  store i8 0, ptr %retval, align 1
  br label %return

if.end:                                           ; preds = %lor.lhs.false
  %fStartTimes3 = getelementptr inbounds %"class.icu_75::TimeArrayTimeZoneRule", ptr %this1, i32 0, i32 3
  %2 = load ptr, ptr %fStartTimes3, align 8
  %fNumStartTimes4 = getelementptr inbounds %"class.icu_75::TimeArrayTimeZoneRule", ptr %this1, i32 0, i32 2
  %3 = load i32, ptr %fNumStartTimes4, align 4
  %sub = sub nsw i32 %3, 1
  %idxprom = sext i32 %sub to i64
  %arrayidx = getelementptr inbounds double, ptr %2, i64 %idxprom
  %4 = load double, ptr %arrayidx, align 8
  %5 = load i32, ptr %prevRawOffset.addr, align 4
  %6 = load i32, ptr %prevDSTSavings.addr, align 4
  %call = call noundef double @_ZNK6icu_7521TimeArrayTimeZoneRule6getUTCEdii(ptr noundef nonnull align 8 dereferenceable(352) %this1, double noundef %4, i32 noundef %5, i32 noundef %6)
  %7 = load ptr, ptr %result.addr, align 8
  store double %call, ptr %7, align 8
  store i8 1, ptr %retval, align 1
  br label %return

return:                                           ; preds = %if.end, %if.then
  %8 = load i8, ptr %retval, align 1
  ret i8 %8
}