; Function Attrs: mustprogress nofree norecurse nosync nounwind willreturn memory(read, argmem: readwrite, inaccessiblemem: none) uwtable
define noundef signext i8 @_ZNK6icu_7521TimeArrayTimeZoneRule13getFinalStartEiiRd(ptr nocapture noundef nonnull readonly align 8 dereferenceable(352) %this, i32 noundef %prevRawOffset, i32 noundef %prevDSTSavings, ptr nocapture noundef nonnull writeonly align 8 dereferenceable(8) %result) unnamed_addr #11 align 2 {
entry:
  %fNumStartTimes = getelementptr inbounds i8, ptr %this, i64 84
  %0 = load i32, ptr %fNumStartTimes, align 4
  %cmp = icmp slt i32 %0, 1
  br i1 %cmp, label %return, label %lor.lhs.false

lor.lhs.false:                                    ; preds = %entry
  %fStartTimes = getelementptr inbounds i8, ptr %this, i64 88
  %1 = load ptr, ptr %fStartTimes, align 8
  %cmp2 = icmp eq ptr %1, null
  br i1 %cmp2, label %return, label %if.end

if.end:                                           ; preds = %lor.lhs.false
  %2 = zext nneg i32 %0 to i64
  %3 = getelementptr double, ptr %1, i64 %2
  %arrayidx = getelementptr i8, ptr %3, i64 -8
  %4 = load double, ptr %arrayidx, align 8
  %fTimeRuleType.i = getelementptr inbounds i8, ptr %this, i64 80
  %5 = load i32, ptr %fTimeRuleType.i, align 8
  %cmp.not.i = icmp eq i32 %5, 2
  %conv.i = sitofp i32 %prevRawOffset to double
  %sub.i = fsub double %4, %conv.i
  %time.addr.0.i = select i1 %cmp.not.i, double %4, double %sub.i
  %cmp3.i = icmp eq i32 %5, 0
  %conv5.i = sitofp i32 %prevDSTSavings to double
  %sub6.i = fsub double %time.addr.0.i, %conv5.i
  %time.addr.1.i = select i1 %cmp3.i, double %sub6.i, double %time.addr.0.i
  store double %time.addr.1.i, ptr %result, align 8
  br label %return

return:                                           ; preds = %entry, %lor.lhs.false, %if.end
  %retval.0 = phi i8 [ 1, %if.end ], [ 0, %lor.lhs.false ], [ 0, %entry ]
  ret i8 %retval.0
}